target datalayout = "e-m:e-p270:32:32-p271:32:32-p272:64:64-i64:64-i128:128-f80:128-n8:16:32:64-S128"
target triple = "x86_64-unknown-linux-gnu"

@.str.14 = private unnamed_addr constant [8 x i8] c"INITIAL\00", align 1
@.str.21 = private unnamed_addr constant [10 x i8] c"CANCELLED\00", align 1
@.str.24 = private unnamed_addr constant [8 x i8] c"UNKNOWN\00", align 1
@.str.71 = private unnamed_addr constant [7 x i8] c"QUEUED\00", align 1
@.str.72 = private unnamed_addr constant [10 x i8] c"FORWARDED\00", align 1
@.str.103 = private unnamed_addr constant [27 x i8] c"QUEUED_BEHIND_SEND_MESSAGE\00", align 1
@.str.104 = private unnamed_addr constant [31 x i8] c"QUEUED_BUT_HAVENT_CLOSED_SENDS\00", align 1

; Function Attrs: mustprogress nounwind uwtable
define noundef ptr @_ZN9grpc_core21promise_filter_detail14ServerCallData11StateStringENS1_17SendTrailingStateE(i32 noundef %state) #5 align 2 {
entry:
  %retval = alloca ptr, align 8
  %state.addr = alloca i32, align 4
  store i32 %state, ptr %state.addr, align 4
  %0 = load i32, ptr %state.addr, align 4
  switch i32 %0, label %sw.epilog [
    i32 0, label %sw.bb
    i32 4, label %sw.bb1
    i32 1, label %sw.bb2
    i32 2, label %sw.bb3
    i32 3, label %sw.bb4
    i32 5, label %sw.bb5
  ]

sw.bb:                                            ; preds = %entry
  store ptr @.str.14, ptr %retval, align 8
  br label %return

sw.bb1:                                           ; preds = %entry
  store ptr @.str.72, ptr %retval, align 8
  br label %return

sw.bb2:                                           ; preds = %entry
  store ptr @.str.103, ptr %retval, align 8
  br label %return

sw.bb3:                                           ; preds = %entry
  store ptr @.str.104, ptr %retval, align 8
  br label %return

sw.bb4:                                           ; preds = %entry
  store ptr @.str.71, ptr %retval, align 8
  br label %return

sw.bb5:                                           ; preds = %entry
  store ptr @.str.21, ptr %retval, align 8
  br label %return

sw.epilog:                                        ; preds = %entry
  store ptr @.str.24, ptr %retval, align 8
  br label %return

return:                                           ; preds = %sw.epilog, %sw.bb5, %sw.bb4, %sw.bb3, %sw.bb2, %sw.bb1, %sw.bb
  %1 = load ptr, ptr %retval, align 8
  ret ptr %1
}