; Function Attrs: mustprogress nofree norecurse nosync nounwind willreturn memory(none) uwtable
define noundef nonnull ptr @_ZN9grpc_core21promise_filter_detail14ServerCallData11StateStringENS1_17SendTrailingStateE(i32 noundef %state) local_unnamed_addr #7 align 2 {
entry:
  %0 = icmp ult i32 %state, 6
  br i1 %0, label %switch.lookup, label %return

switch.lookup:                                    ; preds = %entry
  %1 = zext nneg i32 %state to i64
  %switch.gep = getelementptr inbounds [6 x ptr], ptr @switch.table._ZN9grpc_core21promise_filter_detail14ServerCallData18WakeInsideCombinerEPNS0_12BaseCallData7FlusherE.70, i64 0, i64 %1
  %switch.load = load ptr, ptr %switch.gep, align 8
  br label %return

return:                                           ; preds = %entry, %switch.lookup
  %retval.0 = phi ptr [ %switch.load, %switch.lookup ], [ @.str.24, %entry ]
  ret ptr %retval.0
}